; Function Attrs: mustprogress nounwind uwtable
define dso_local noundef zeroext i1 @_ZNK4llvm21RISCVRegisterBankInfo10onlyUsesFPERKNS_12MachineInstrERKNS_19MachineRegisterInfoERKNS_18TargetRegisterInfoE(ptr noundef nonnull align 8 dereferenceable(160) %0, ptr noundef nonnull readonly align 8 captures(none) dereferenceable(70) %1, ptr noundef nonnull align 8 dereferenceable(512) %2, ptr noundef nonnull align 8 dereferenceable(308) %3) local_unnamed_addr #0 align 2 {
  %5 = getelementptr inbounds nuw i8, ptr %1, i64 68
  %6 = load i16, ptr %5, align 4
  switch i16 %6, label %7 [
    i16 193, label %_ZNK4llvm21RISCVRegisterBankInfo16hasFPConstraintsERKNS_12MachineInstrERKNS_19MachineRegisterInfoERKNS_18TargetRegisterInfoE.exit
    i16 194, label %_ZNK4llvm21RISCVRegisterBankInfo16hasFPConstraintsERKNS_12MachineInstrERKNS_19MachineRegisterInfoERKNS_18TargetRegisterInfoE.exit
    i16 143, label %_ZNK4llvm21RISCVRegisterBankInfo16hasFPConstraintsERKNS_12MachineInstrERKNS_19MachineRegisterInfoERKNS_18TargetRegisterInfoE.exit
  ]

7:                                                ; preds = %4
  %8 = zext i16 %6 to i32
  %9 = tail call noundef zeroext i1 @_ZN4llvm35isPreISelGenericFloatingPointOpcodeEj(i32 noundef %8) #8
  br i1 %9, label %_ZNK4llvm21RISCVRegisterBankInfo16hasFPConstraintsERKNS_12MachineInstrERKNS_19MachineRegisterInfoERKNS_18TargetRegisterInfoE.exit, label %10

10:                                               ; preds = %7
  %11 = load i16, ptr %5, align 4
  %.not.i = icmp eq i16 %11, 19
  br i1 %.not.i, label %12, label %_ZNK4llvm21RISCVRegisterBankInfo16hasFPConstraintsERKNS_12MachineInstrERKNS_19MachineRegisterInfoERKNS_18TargetRegisterInfoE.exit

12:                                               ; preds = %10
  %13 = getelementptr inbounds nuw i8, ptr %1, i64 32
  %14 = load ptr, ptr %13, align 8
  %15 = getelementptr inbounds nuw i8, ptr %14, i64 4
  %16 = load i32, ptr %15, align 4
  %17 = tail call noundef ptr @_ZNK4llvm16RegisterBankInfo10getRegBankENS_8RegisterERKNS_19MachineRegisterInfoERKNS_18TargetRegisterInfoE(ptr noundef nonnull align 8 dereferenceable(160) %0, i32 %16, ptr noundef nonnull align 8 dereferenceable(512) %2, ptr noundef nonnull align 8 dereferenceable(308) %3) #8
  %18 = icmp eq ptr %17, @_ZN4llvm5RISCVL11FPRBRegBankE
  br label %_ZNK4llvm21RISCVRegisterBankInfo16hasFPConstraintsERKNS_12MachineInstrERKNS_19MachineRegisterInfoERKNS_18TargetRegisterInfoE.exit

_ZNK4llvm21RISCVRegisterBankInfo16hasFPConstraintsERKNS_12MachineInstrERKNS_19MachineRegisterInfoERKNS_18TargetRegisterInfoE.exit: ; preds = %12, %10, %7, %4, %4, %4
  %.0 = phi i1 [ true, %4 ], [ true, %4 ], [ true, %4 ], [ %18, %12 ], [ true, %7 ], [ false, %10 ]
  ret i1 %.0
}